target datalayout = "e-m:e-p270:32:32-p271:32:32-p272:64:64-i64:64-i128:128-f80:128-n8:16:32:64-S128"
target triple = "x86_64-unknown-linux-gnu"

%"class.icu_75::UObject" = type { ptr }
%"class.icu_75::AlphabeticIndex::Bucket" = type { %"class.icu_75::UObject", %"class.icu_75::UnicodeString", %"class.icu_75::UnicodeString", i32, ptr, i32, ptr }
%"class.icu_75::UnicodeString" = type { %"class.icu_75::Replaceable", %"union.icu_75::UnicodeString::StackBufferOrFields" }
%"class.icu_75::Replaceable" = type { %"class.icu_75::UObject" }
%"union.icu_75::UnicodeString::StackBufferOrFields" = type { %struct.anon.0, [32 x i8] }
%struct.anon.0 = type { i16, i32, i32, ptr }
%"class.icu_75::AlphabeticIndex" = type { %"class.icu_75::UObject", ptr, i32, i32, ptr, i32, ptr, ptr, ptr, ptr, ptr, %"class.icu_75::UnicodeString", %"class.icu_75::UnicodeString", %"class.icu_75::UnicodeString", %"class.icu_75::UnicodeString", %"class.icu_75::UnicodeString" }
%"class.icu_75::UVector" = type { %"class.icu_75::UObject", i32, i32, ptr, ptr, ptr }
%"struct.icu_75::AlphabeticIndex::Record" = type { [8 x i8], %"class.icu_75::UnicodeString", ptr }

; Function Attrs: mustprogress nounwind uwtable
define linkonce_odr noundef i32 @_ZNK6icu_757UVector4sizeEv(ptr noundef nonnull align 8 dereferenceable(40) %this) #0 comdat align 2 {
entry:
  %this.addr = alloca ptr, align 8
  store ptr %this, ptr %this.addr, align 8
  %this1 = load ptr, ptr %this.addr, align 8
  %count = getelementptr inbounds %"class.icu_75::UVector", ptr %this1, i32 0, i32 1
  %0 = load i32, ptr %count, align 8
  ret i32 %0
}

; Function Attrs: mustprogress uwtable
define noundef nonnull align 8 dereferenceable(64) ptr @_ZNK6icu_7515AlphabeticIndex13getRecordNameEv(ptr noundef nonnull align 8 dereferenceable(400) %this) unnamed_addr #2 align 2 {
entry:
  %this.addr = alloca ptr, align 8
  %retStr = alloca ptr, align 8
  %item = alloca ptr, align 8
  store ptr %this, ptr %this.addr, align 8
  %this1 = load ptr, ptr %this.addr, align 8
  %emptyString_ = getelementptr inbounds %"class.icu_75::AlphabeticIndex", ptr %this1, i32 0, i32 15
  store ptr %emptyString_, ptr %retStr, align 8
  %currentBucket_ = getelementptr inbounds %"class.icu_75::AlphabeticIndex", ptr %this1, i32 0, i32 4
  %0 = load ptr, ptr %currentBucket_, align 8
  %cmp = icmp ne ptr %0, null
  br i1 %cmp, label %land.lhs.true, label %if.end

land.lhs.true:                                    ; preds = %entry
  %currentBucket_2 = getelementptr inbounds %"class.icu_75::AlphabeticIndex", ptr %this1, i32 0, i32 4
  %1 = load ptr, ptr %currentBucket_2, align 8
  %records_ = getelementptr inbounds %"class.icu_75::AlphabeticIndex::Bucket", ptr %1, i32 0, i32 6
  %2 = load ptr, ptr %records_, align 8
  %cmp3 = icmp ne ptr %2, null
  br i1 %cmp3, label %land.lhs.true4, label %if.end

land.lhs.true4:                                   ; preds = %land.lhs.true
  %itemsIterIndex_ = getelementptr inbounds %"class.icu_75::AlphabeticIndex", ptr %this1, i32 0, i32 3
  %3 = load i32, ptr %itemsIterIndex_, align 4
  %cmp5 = icmp sge i32 %3, 0
  br i1 %cmp5, label %land.lhs.true6, label %if.end

land.lhs.true6:                                   ; preds = %land.lhs.true4
  %itemsIterIndex_7 = getelementptr inbounds %"class.icu_75::AlphabeticIndex", ptr %this1, i32 0, i32 3
  %4 = load i32, ptr %itemsIterIndex_7, align 4
  %currentBucket_8 = getelementptr inbounds %"class.icu_75::AlphabeticIndex", ptr %this1, i32 0, i32 4
  %5 = load ptr, ptr %currentBucket_8, align 8
  %records_9 = getelementptr inbounds %"class.icu_75::AlphabeticIndex::Bucket", ptr %5, i32 0, i32 6
  %6 = load ptr, ptr %records_9, align 8
  %call = call noundef i32 @_ZNK6icu_757UVector4sizeEv(ptr noundef nonnull align 8 dereferenceable(40) %6)
  %cmp10 = icmp slt i32 %4, %call
  br i1 %cmp10, label %if.then, label %if.end

if.then:                                          ; preds = %land.lhs.true6
  %currentBucket_11 = getelementptr inbounds %"class.icu_75::AlphabeticIndex", ptr %this1, i32 0, i32 4
  %7 = load ptr, ptr %currentBucket_11, align 8
  %records_12 = getelementptr inbounds %"class.icu_75::AlphabeticIndex::Bucket", ptr %7, i32 0, i32 6
  %8 = load ptr, ptr %records_12, align 8
  %itemsIterIndex_13 = getelementptr inbounds %"class.icu_75::AlphabeticIndex", ptr %this1, i32 0, i32 3
  %9 = load i32, ptr %itemsIterIndex_13, align 4
  %call14 = call noundef ptr @_ZNK6icu_757UVector9elementAtEi(ptr noundef nonnull align 8 dereferenceable(40) %8, i32 noundef %9)
  store ptr %call14, ptr %item, align 8
  %10 = load ptr, ptr %item, align 8
  %name_ = getelementptr inbounds %"struct.icu_75::AlphabeticIndex::Record", ptr %10, i32 0, i32 1
  store ptr %name_, ptr %retStr, align 8
  br label %if.end

if.end:                                           ; preds = %if.then, %land.lhs.true6, %land.lhs.true4, %land.lhs.true, %entry
  %11 = load ptr, ptr %retStr, align 8
  ret ptr %11
}